; Function Attrs: mustprogress uwtable
define void @_ZN6icu_7522TransliteratorIDParser8SingleIDC2ERKNS_13UnicodeStringES4_(ptr noundef nonnull align 8 dereferenceable(200) %this, ptr noundef nonnull align 8 dereferenceable(64) %c, ptr noundef nonnull align 8 dereferenceable(64) %b) unnamed_addr #1 align 2 personality ptr @__gxx_personality_v0 {
invoke.cont3:
  %canonID = getelementptr inbounds i8, ptr %this, i64 8
  store ptr getelementptr inbounds ({ [13 x ptr] }, ptr @_ZTVN6icu_7513UnicodeStringE, i64 0, i32 0, i64 2), ptr %canonID, align 8
  %fUnion2.i = getelementptr inbounds i8, ptr %this, i64 16
  store i16 2, ptr %fUnion2.i, align 8
  %basicID = getelementptr inbounds i8, ptr %this, i64 72
  store ptr getelementptr inbounds ({ [13 x ptr] }, ptr @_ZTVN6icu_7513UnicodeStringE, i64 0, i32 0, i64 2), ptr %basicID, align 8
  %fUnion2.i3 = getelementptr inbounds i8, ptr %this, i64 80
  store i16 2, ptr %fUnion2.i3, align 8
  %filter = getelementptr inbounds i8, ptr %this, i64 136
  store ptr getelementptr inbounds ({ [13 x ptr] }, ptr @_ZTVN6icu_7513UnicodeStringE, i64 0, i32 0, i64 2), ptr %filter, align 8
  %fUnion2.i4 = getelementptr inbounds i8, ptr %this, i64 144
  store i16 2, ptr %fUnion2.i4, align 8
  %call = invoke noundef nonnull align 8 dereferenceable(64) ptr @_ZN6icu_7513UnicodeStringaSERKS0_(ptr noundef nonnull align 8 dereferenceable(64) %canonID, ptr noundef nonnull align 8 dereferenceable(64) %c)
          to label %invoke.cont6 unwind label %lpad5

invoke.cont6:                                     ; preds = %invoke.cont3
  %call9 = invoke noundef nonnull align 8 dereferenceable(64) ptr @_ZN6icu_7513UnicodeStringaSERKS0_(ptr noundef nonnull align 8 dereferenceable(64) %basicID, ptr noundef nonnull align 8 dereferenceable(64) %b)
          to label %invoke.cont8 unwind label %lpad5

invoke.cont8:                                     ; preds = %invoke.cont6
  ret void

lpad5:                                            ; preds = %invoke.cont6, %invoke.cont3
  %0 = landingpad { ptr, i32 }
          cleanup
  tail call void @_ZN6icu_7513UnicodeStringD1Ev(ptr noundef nonnull align 8 dereferenceable(64) %filter) #9
  tail call void @_ZN6icu_7513UnicodeStringD1Ev(ptr noundef nonnull align 8 dereferenceable(64) %basicID) #9
  tail call void @_ZN6icu_7513UnicodeStringD1Ev(ptr noundef nonnull align 8 dereferenceable(64) %canonID) #9
  resume { ptr, i32 } %0
}